target datalayout = "e-m:e-p270:32:32-p271:32:32-p272:64:64-i64:64-i128:128-f80:128-n8:16:32:64-S128"
target triple = "x86_64-pc-linux-gnu"

@l_Lean_Elab_Command_mkCommandElabAttributeUnsafe___closed__2 = internal global ptr null, align 8
@l_Lean_Elab_Command_mkCommandElabAttributeUnsafe___closed__4 = internal global ptr null, align 8
@l_Lean_Elab_Command_mkCommandElabAttributeUnsafe___closed__5 = internal global ptr null, align 8
@l_Lean_Elab_Command_mkCommandElabAttributeUnsafe___closed__7 = internal global ptr null, align 8
@l_Lean_Elab_Command_mkCommandElabAttributeUnsafe___closed__8 = internal global ptr null, align 8
@l_Lean_Elab_Command_initFn____x40_Lean_Elab_Command___hyg_3380____closed__2 = internal global ptr null, align 8

; Function Attrs: nounwind uwtable
define ptr @l_Lean_Elab_Command_mkCommandElabAttributeUnsafe(ptr noundef %0, ptr noundef %1) #2 {
  %3 = alloca ptr, align 8
  %4 = alloca ptr, align 8
  %5 = alloca ptr, align 8
  %6 = alloca ptr, align 8
  %7 = alloca ptr, align 8
  %8 = alloca ptr, align 8
  %9 = alloca ptr, align 8
  %10 = alloca ptr, align 8
  store ptr %0, ptr %3, align 8, !tbaa !4
  store ptr %1, ptr %4, align 8, !tbaa !4
  br label %11

11:                                               ; preds = %2
  call void @llvm.lifetime.start.p0(i64 8, ptr %5) #8
  call void @llvm.lifetime.start.p0(i64 8, ptr %6) #8
  call void @llvm.lifetime.start.p0(i64 8, ptr %7) #8
  call void @llvm.lifetime.start.p0(i64 8, ptr %8) #8
  call void @llvm.lifetime.start.p0(i64 8, ptr %9) #8
  call void @llvm.lifetime.start.p0(i64 8, ptr %10) #8
  %12 = load ptr, ptr @l_Lean_Elab_Command_mkCommandElabAttributeUnsafe___closed__2, align 8, !tbaa !4
  store ptr %12, ptr %5, align 8, !tbaa !4
  %13 = load ptr, ptr @l_Lean_Elab_Command_mkCommandElabAttributeUnsafe___closed__4, align 8, !tbaa !4
  store ptr %13, ptr %6, align 8, !tbaa !4
  %14 = load ptr, ptr @l_Lean_Elab_Command_mkCommandElabAttributeUnsafe___closed__5, align 8, !tbaa !4
  store ptr %14, ptr %7, align 8, !tbaa !4
  %15 = load ptr, ptr @l_Lean_Elab_Command_mkCommandElabAttributeUnsafe___closed__7, align 8, !tbaa !4
  store ptr %15, ptr %8, align 8, !tbaa !4
  %16 = load ptr, ptr @l_Lean_Elab_Command_mkCommandElabAttributeUnsafe___closed__8, align 8, !tbaa !4
  store ptr %16, ptr %9, align 8, !tbaa !4
  %17 = load ptr, ptr %5, align 8, !tbaa !4
  %18 = load ptr, ptr %6, align 8, !tbaa !4
  %19 = load ptr, ptr %7, align 8, !tbaa !4
  %20 = load ptr, ptr %8, align 8, !tbaa !4
  %21 = load ptr, ptr %9, align 8, !tbaa !4
  %22 = load ptr, ptr %3, align 8, !tbaa !4
  %23 = load ptr, ptr %4, align 8, !tbaa !4
  %24 = call ptr @l_Lean_Elab_mkElabAttribute___rarg(ptr noundef %17, ptr noundef %18, ptr noundef %19, ptr noundef %20, ptr noundef %21, ptr noundef %22, ptr noundef %23)
  store ptr %24, ptr %10, align 8, !tbaa !4
  %25 = load ptr, ptr %10, align 8, !tbaa !4
  call void @llvm.lifetime.end.p0(i64 8, ptr %10) #8
  call void @llvm.lifetime.end.p0(i64 8, ptr %9) #8
  call void @llvm.lifetime.end.p0(i64 8, ptr %8) #8
  call void @llvm.lifetime.end.p0(i64 8, ptr %7) #8
  call void @llvm.lifetime.end.p0(i64 8, ptr %6) #8
  call void @llvm.lifetime.end.p0(i64 8, ptr %5) #8
  ret ptr %25
}

; Function Attrs: nounwind uwtable
define ptr @l_Lean_Elab_Command_initFn____x40_Lean_Elab_Command___hyg_3380_(ptr noundef %0) #2 {
  %2 = alloca ptr, align 8
  %3 = alloca ptr, align 8
  %4 = alloca ptr, align 8
  store ptr %0, ptr %2, align 8, !tbaa !4
  br label %5

5:                                                ; preds = %1
  call void @llvm.lifetime.start.p0(i64 8, ptr %3) #8
  call void @llvm.lifetime.start.p0(i64 8, ptr %4) #8
  %6 = load ptr, ptr @l_Lean_Elab_Command_initFn____x40_Lean_Elab_Command___hyg_3380____closed__2, align 8, !tbaa !4
  store ptr %6, ptr %3, align 8, !tbaa !4
  %7 = load ptr, ptr %3, align 8, !tbaa !4
  %8 = load ptr, ptr %2, align 8, !tbaa !4
  %9 = call ptr @l_Lean_Elab_Command_mkCommandElabAttributeUnsafe(ptr noundef %7, ptr noundef %8)
  store ptr %9, ptr %4, align 8, !tbaa !4
  %10 = load ptr, ptr %4, align 8, !tbaa !4
  call void @llvm.lifetime.end.p0(i64 8, ptr %4) #8
  call void @llvm.lifetime.end.p0(i64 8, ptr %3) #8
  ret ptr %10
}