; Function Attrs: nounwind uwtable
define ptr @l_Lean_Elab_Command_initFn____x40_Lean_Elab_Command___hyg_3380_(ptr noundef %0) local_unnamed_addr #0 {
  %2 = load ptr, ptr @l_Lean_Elab_Command_initFn____x40_Lean_Elab_Command___hyg_3380____closed__2, align 8, !tbaa !9
  %3 = load ptr, ptr @l_Lean_Elab_Command_mkCommandElabAttributeUnsafe___closed__2, align 8, !tbaa !9
  %4 = load ptr, ptr @l_Lean_Elab_Command_mkCommandElabAttributeUnsafe___closed__4, align 8, !tbaa !9
  %5 = load ptr, ptr @l_Lean_Elab_Command_mkCommandElabAttributeUnsafe___closed__5, align 8, !tbaa !9
  %6 = load ptr, ptr @l_Lean_Elab_Command_mkCommandElabAttributeUnsafe___closed__7, align 8, !tbaa !9
  %7 = load ptr, ptr @l_Lean_Elab_Command_mkCommandElabAttributeUnsafe___closed__8, align 8, !tbaa !9
  %8 = tail call ptr @l_Lean_Elab_mkElabAttribute___rarg(ptr noundef %3, ptr noundef %4, ptr noundef %5, ptr noundef %6, ptr noundef %7, ptr noundef %2, ptr noundef %0) #6
  ret ptr %8
}